; Function Attrs: nofree norecurse nosync nounwind memory(readwrite, inaccessiblemem: none) uwtable
define internal noundef i32 @sum_slice16(ptr noundef readonly captures(none) %0, ptr noundef readonly captures(none) %1, i32 noundef %2, i32 noundef %3) #6 {
  %5 = getelementptr inbounds nuw i8, ptr %0, i64 72
  %6 = load ptr, ptr %5, align 8, !tbaa !4
  %7 = load ptr, ptr %1, align 8, !tbaa !68
  %8 = getelementptr inbounds nuw i8, ptr %1, i64 8
  %9 = load ptr, ptr %8, align 8, !tbaa !71
  %10 = getelementptr inbounds nuw i8, ptr %6, i64 248
  %11 = load i32, ptr %10, align 8, !tbaa !32
  %12 = icmp sgt i32 %11, 0
  br i1 %12, label %.lr.ph, label %._crit_edge

.lr.ph:                                           ; preds = %4
  %13 = getelementptr inbounds nuw i8, ptr %7, i64 64
  %14 = getelementptr inbounds nuw i8, ptr %9, i64 64
  %15 = getelementptr inbounds nuw i8, ptr %6, i64 268
  %16 = getelementptr inbounds nuw i8, ptr %6, i64 252
  %17 = add nsw i32 %2, 1
  %18 = getelementptr inbounds nuw i8, ptr %6, i64 232
  %19 = load ptr, ptr %18, align 8, !tbaa !62
  %20 = mul nsw i32 %11, %2
  %21 = sext i32 %20 to i64
  %wide.trip.count83 = zext nneg i32 %11 to i64
  br label %22

._crit_edge:                                      ; preds = %._crit_edge71, %4
  ret i32 0

22:                                               ; preds = %.lr.ph, %._crit_edge71
  %indvars.iv80 = phi i64 [ 0, %.lr.ph ], [ %indvars.iv.next81, %._crit_edge71 ]
  %23 = getelementptr inbounds nuw [8 x i32], ptr %13, i64 0, i64 %indvars.iv80
  %24 = load i32, ptr %23, align 4, !tbaa !60
  %25 = sext i32 %24 to i64
  %26 = lshr i64 %25, 1
  %27 = getelementptr inbounds nuw [8 x i32], ptr %14, i64 0, i64 %indvars.iv80
  %28 = load i32, ptr %27, align 4, !tbaa !60
  %29 = sext i32 %28 to i64
  %30 = lshr i64 %29, 1
  %31 = getelementptr inbounds nuw [4 x i32], ptr %15, i64 0, i64 %indvars.iv80
  %32 = load i32, ptr %31, align 4, !tbaa !60
  %33 = getelementptr inbounds nuw [4 x i32], ptr %16, i64 0, i64 %indvars.iv80
  %34 = load i32, ptr %33, align 4, !tbaa !60
  %35 = mul nsw i32 %32, %2
  %36 = sdiv i32 %35, %3
  %37 = mul nsw i32 %32, %17
  %38 = sdiv i32 %37, %3
  %39 = icmp slt i32 %36, %38
  %40 = icmp sgt i32 %34, 0
  %or.cond = select i1 %39, i1 %40, i1 false
  br i1 %or.cond, label %.preheader.us.preheader, label %._crit_edge71

.preheader.us.preheader:                          ; preds = %22
  %41 = getelementptr inbounds nuw [8 x ptr], ptr %7, i64 0, i64 %indvars.iv80
  %42 = load ptr, ptr %41, align 8, !tbaa !72
  %43 = sext i32 %36 to i64
  %44 = mul nsw i64 %26, %43
  %45 = getelementptr inbounds i16, ptr %42, i64 %44
  %46 = getelementptr inbounds nuw [8 x ptr], ptr %9, i64 0, i64 %indvars.iv80
  %47 = load ptr, ptr %46, align 8, !tbaa !72
  %48 = mul nsw i64 %30, %43
  %49 = getelementptr inbounds i16, ptr %47, i64 %48
  %wide.trip.count = zext nneg i32 %34 to i64
  br label %.preheader.us

.preheader.us:                                    ; preds = %.preheader.us.preheader, %._crit_edge.us
  %.05570.us = phi i32 [ %61, %._crit_edge.us ], [ %36, %.preheader.us.preheader ]
  %.05669.us = phi i64 [ %58, %._crit_edge.us ], [ 0, %.preheader.us.preheader ]
  %.05768.us = phi i64 [ %54, %._crit_edge.us ], [ 0, %.preheader.us.preheader ]
  %.05967.us = phi ptr [ %60, %._crit_edge.us ], [ %49, %.preheader.us.preheader ]
  %.06066.us = phi ptr [ %59, %._crit_edge.us ], [ %45, %.preheader.us.preheader ]
  br label %50

50:                                               ; preds = %.preheader.us, %50
  %indvars.iv = phi i64 [ 0, %.preheader.us ], [ %indvars.iv.next, %50 ]
  %.163.us = phi i64 [ %.05669.us, %.preheader.us ], [ %58, %50 ]
  %.15862.us = phi i64 [ %.05768.us, %.preheader.us ], [ %54, %50 ]
  %51 = getelementptr inbounds nuw i16, ptr %.06066.us, i64 %indvars.iv
  %52 = load i16, ptr %51, align 2, !tbaa !73
  %53 = zext i16 %52 to i64
  %54 = add i64 %.15862.us, %53
  %55 = getelementptr inbounds nuw i16, ptr %.05967.us, i64 %indvars.iv
  %56 = load i16, ptr %55, align 2, !tbaa !73
  %57 = zext i16 %56 to i64
  %58 = add i64 %.163.us, %57
  %indvars.iv.next = add nuw nsw i64 %indvars.iv, 1
  %exitcond.not = icmp eq i64 %indvars.iv.next, %wide.trip.count
  br i1 %exitcond.not, label %._crit_edge.us, label %50, !llvm.loop !75

._crit_edge.us:                                   ; preds = %50
  %59 = getelementptr inbounds nuw i16, ptr %.06066.us, i64 %26
  %60 = getelementptr inbounds nuw i16, ptr %.05967.us, i64 %30
  %61 = add nsw i32 %.05570.us, 1
  %exitcond79.not = icmp eq i32 %61, %38
  br i1 %exitcond79.not, label %._crit_edge71, label %.preheader.us, !llvm.loop !76

._crit_edge71:                                    ; preds = %._crit_edge.us, %22
  %.057.lcssa = phi i64 [ 0, %22 ], [ %54, %._crit_edge.us ]
  %.056.lcssa = phi i64 [ 0, %22 ], [ %58, %._crit_edge.us ]
  %62 = add nsw i64 %indvars.iv80, %21
  %63 = getelementptr inbounds %struct.Sums, ptr %19, i64 %62
  store i64 %.057.lcssa, ptr %63, align 8, !tbaa !77
  %64 = getelementptr inbounds %struct.Sums, ptr %19, i64 %62, i32 0, i64 1
  store i64 %.056.lcssa, ptr %64, align 8, !tbaa !77
  %indvars.iv.next81 = add nuw nsw i64 %indvars.iv80, 1
  %exitcond84.not = icmp eq i64 %indvars.iv.next81, %wide.trip.count83
  br i1 %exitcond84.not, label %._crit_edge, label %22, !llvm.loop !78
}